Certificate:
    Data:
        Version: 3 (0x2)
        Serial Number: 4 (0x4)
        Signature Algorithm: sha256WithRSAEncryption
        Issuer: CN=Test CA, O=Aiven Oy, C=UK
        Validity
            Not Before: Jan 28 16:16:25 2022 GMT
            Not After : Oct 24 16:16:25 2024 GMT
        Subject: C=UK, O=Aiven Oy, CN=Test Server
        Subject Public Key Info:
            Public Key Algorithm: rsaEncryption
                RSA Public-Key: (2048 bit)
                Modulus:
                    00:c6:43:fa:7a:c8:39:ae:4c:f9:81:62:4e:4f:d9:
                    8c:4a:36:62:ec:96:c3:03:1c:7b:b0:42:b8:d7:00:
                    89:f9:94:55:e6:65:43:91:fb:d6:64:3b:63:c2:c6:
                    94:13:92:a0:f0:e3:d0:07:dc:7e:57:f1:93:41:24:
                    8f:e6:b5:cf:4a:66:1f:e4:df:a1:28:e2:d2:1b:06:
                    3b:a3:a4:a7:b0:c5:8d:6f:ba:54:73:3e:5e:76:86:
                    d5:25:9a:cf:f5:f1:ab:2c:77:f2:77:a5:fd:cf:f3:
                    d7:b4:c0:98:f5:1e:2f:5a:db:b3:dc:ab:45:0f:e6:
                    f9:0d:0c:10:0f:4b:ea:50:24:29:4e:41:aa:c7:5e:
                    39:0e:14:17:03:dc:a5:c5:ed:55:50:33:ed:cf:c2:
                    7a:11:07:8b:1b:20:67:e8:93:97:35:a4:5d:24:3b:
                    41:2d:bc:42:fa:2c:2d:e4:d3:48:f1:57:ce:47:d2:
                    8f:32:0e:9d:27:69:77:39:d8:39:41:3a:8e:d4:81:
                    69:aa:64:13:7f:bf:71:aa:ae:bf:41:b1:1e:0c:6d:
                    86:24:d0:27:8c:b0:25:38:2f:db:49:98:93:b5:53:
                    62:87:5a:9b:70:04:aa:b3:01:c8:39:f3:3d:d4:44:
                    6f:c8:48:5d:2d:f0:bd:94:bf:b7:35:f8:d5:06:bc:
                    51:93
                Exponent: 65537 (0x10001)
        X509v3 extensions:
            X509v3 Subject Key Identifier:
                97:00:E6:DC:54:59:A5:DF:1A:59:DC:E1:AE:81:DB:69:86:71:26:51
            X509v3 Authority Key Identifier:
                keyid:CE:2C:DB:74:67:EE:0D:D1:35:11:7C:34:BE:6B:78:A7:04:B9:B5:62

            X509v3 Basic Constraints:
                CA:FALSE
            X509v3 Key Usage:
                Digital Signature, Key Encipherment
            X509v3 Subject Alternative Name:
                DNS:localhost, IP Address:127.0.0.1, IP Address:0:0:0:0:0:0:0:1
            Netscape Comment:
                OpenSSL Generated Certificate
    Signature Algorithm: sha256WithRSAEncryption
         be:02:36:90:6f:60:fb:e9:37:60:b9:94:57:ab:98:98:a9:e7:
         52:11:3b:ed:db:77:56:fd:31:79:36:58:68:6a:52:f9:b9:e7:
         83:24:b9:d9:e2:ad:99:86:25:15:4f:80:b8:14:79:9f:dd:3c:
         4b:1e:e1:80:34:d6:0d:35:0f:1c:d0:95:16:71:01:09:f7:a8:
         2c:30:b4:94:ac:53:57:5e:57:1d:ec:cf:cf:85:7b:ff:06:85:
         93:3c:1d:c4:f2:d4:ff:b6:73:5f:34:74:8b:a3:54:90:8d:b8:
         04:51:e2:07:e7:98:09:e5:f2:7d:c8:47:70:01:ff:28:81:7e:
         56:38:47:4c:97:7a:c3:b1:bd:c7:10:92:ef:4c:cd:17:fb:32:
         b4:3b:4a:82:bd:09:c8:ce:e7:66:43:92:61:fc:3d:61:72:d3:
         7a:57:15:81:f2:8a:a0:5f:82:59:b0:81:aa:3b:7f:71:60:f1:
         a7:21:a0:ef:60:18:c9:3d:65:5b:e1:c0:2b:ce:55:31:93:a9:
         c8:76:f0:a0:d1:fb:bf:86:69:30:f5:2d:d0:bc:d0:23:96:04:
         7d:77:0a:c3:7f:4c:55:c4:15:62:99:03:9c:02:ee:5a:33:1c:
         59:2f:2a:aa:21:9e:6e:b1:bb:1e:39:85:b2:46:09:31:21:3a:
         89:8f:90:8a:f7:27:f2:e5:ff:4b:6a:96:bf:af:0d:eb:47:d5:
         f4:56:77:f4:31:7e:63:b5:2f:73:ce:68:06:94:f5:ce:63:51:
         3f:5d:db:62:98:ec:18:44:86:c1:d0:bc:1e:8f:ae:06:ab:80:
         6d:f8:e4:85:aa:1c:11:03:1d:1e:28:73:73:d1:6f:01:87:f0:
         f3:d3:03:18:e5:8e:31:c0:d7:4a:60:b5:1d:ab:c9:c0:c1:c5:
         b7:1e:6e:ad:c2:85:5c:d9:c8:6b:37:a3:36:d7:8e:47:70:17:
         9e:ab:2c:cc:ed:7a:55:46:db:42:03:9c:16:e6:05:b0:d4:f2:
         ae:b6:35:bd:22:19:07:0b:43:dd:f9:f8:45:d3:6a:ff:d4:58:
         90:af:cd:a6:ab:ee:80:b9:1d:5c:43:7a:b7:57:ee:38:18:e6:
         1c:28:4d:e1:00:47:6d:c5:37:b4:39:eb:14:da:be:bd:15:17:
         8f:cd:19:a2:12:99:29:6c:43:3e:df:3a:54:e8:86:e5:c4:3f:
         5b:22:bb:e9:2e:f0:f1:4c:5c:bf:33:ae:ca:ae:e1:65:8a:64:
         b7:ca:15:6c:5c:51:d6:6f:ea:d0:6a:01:7d:4a:5b:0c:f2:c4:
         48:ad:fd:43:eb:fd:1a:55:66:ed:53:57:b4:a1:eb:de:5e:4b:
         cd:f9:2a:59:88:49:34:f4
-----BEGIN CERTIFICATE-----
MIIEmzCCAoOgAwIBAgIBBDANBgkqhkiG9w0BAQsFADAyMRAwDgYDVQQDDAdUZXN0
IENBMREwDwYDVQQKDAhBaXZlbiBPeTELMAkGA1UEBhMCVUswHhcNMjIwMTI4MTYx
NjI1WhcNMjQxMDI0MTYxNjI1WjA2MQswCQYDVQQGEwJVSzERMA8GA1UECgwIQWl2
ZW4gT3kxFDASBgNVBAMMC1Rlc3QgU2VydmVyMIIBIjANBgkqhkiG9w0BAQEFAAOC
AQ8AMIIBCgKCAQEAxkP6esg5rkz5gWJOT9mMSjZi7JbDAxx7sEK41wCJ+ZRV5mVD
kfvWZDtjwsaUE5Kg8OPQB9x+V/GTQSSP5rXPSmYf5N+hKOLSGwY7o6SnsMWNb7pU
cz5edobVJZrP9fGrLHfyd6X9z/PXtMCY9R4vWtuz3KtFD+b5DQwQD0vqUCQpTkGq
x145DhQXA9ylxe1VUDPtz8J6EQeLGyBn6JOXNaRdJDtBLbxC+iwt5NNI8VfOR9KP
Mg6dJ2l3Odg5QTqO1IFpqmQTf79xqq6/QbEeDG2GJNAnjLAlOC/bSZiTtVNih1qb
cASqswHIOfM91ERvyEhdLfC9lL+3NfjVBrxRkwIDAQABo4G3MIG0MB0GA1UdDgQW
BBSXAObcVFml3xpZ3OGugdtphnEmUTAfBgNVHSMEGDAWgBTOLNt0Z+4N0TURfDS+
a3inBLm1YjAJBgNVHRMEAjAAMAsGA1UdDwQEAwIFoDAsBgNVHREEJTAjgglsb2Nh
bGhvc3SHBH8AAAGHEAAAAAAAAAAAAAAAAAAAAAEwLAYJYIZIAYb4QgENBB8WHU9w
ZW5TU0wgR2VuZXJhdGVkIENlcnRpZmljYXRlMA0GCSqGSIb3DQEBCwUAA4ICAQC+
AjaQb2D76TdguZRXq5iYqedSETvt23dW/TF5NlhoalL5ueeDJLnZ4q2ZhiUVT4C4
FHmf3TxLHuGANNYNNQ8c0JUWcQEJ96gsMLSUrFNXXlcd7M/PhXv/BoWTPB3E8tT/
tnNfNHSLo1SQjbgEUeIH55gJ5fJ9yEdwAf8ogX5WOEdMl3rDsb3HEJLvTM0X+zK0
O0qCvQnIzudmQ5Jh/D1hctN6VxWB8oqgX4JZsIGqO39xYPGnIaDvYBjJPWVb4cAr
zlUxk6nIdvCg0fu/hmkw9S3QvNAjlgR9dwrDf0xVxBVimQOcAu5aMxxZLyqqIZ5u
sbseOYWyRgkxITqJj5CK9yfy5f9Lapa/rw3rR9X0Vnf0MX5jtS9zzmgGlPXOY1E/
XdtimOwYRIbB0Lwej64Gq4Bt+OSFqhwRAx0eKHNz0W8Bh/Dz0wMY5Y4xwNdKYLUd
q8nAwcW3Hm6twoVc2chrN6M2145HcBeeqyzM7XpVRttCA5wW5gWw1PKutjW9IhkH
C0Pd+fhF02r/1FiQr82mq+6AuR1cQ3q3V+44GOYcKE3hAEdtxTe0OesU2r69FReP
zRmiEpkpbEM+3zpU6IblxD9bIrvpLvDxTFy/M67KruFlimS3yhVsXFHWb+rQagF9
SlsM8sRIrf1D6/0aVWbtU1e0oeveXkvN+SpZiEk09A==
-----END CERTIFICATE-----
